target datalayout = "e-m:e-p270:32:32-p271:32:32-p272:64:64-i64:64-i128:128-f80:128-n8:16:32:64-S128"
target triple = "x86_64-pc-linux-gnu"

%struct.Vector3 = type { float, float, float }

; Function Attrs: nounwind uwtable
define { <2 x float>, float } @Vector3Clamp(<2 x float> %0, float %1, <2 x float> %2, float %3, <2 x float> %4, float %5) #9 {
  %7 = alloca %struct.Vector3, align 4
  %8 = alloca %struct.Vector3, align 4
  %9 = alloca { <2 x float>, float }, align 4
  %10 = alloca %struct.Vector3, align 4
  %11 = alloca { <2 x float>, float }, align 4
  %12 = alloca %struct.Vector3, align 4
  %13 = alloca { <2 x float>, float }, align 4
  %14 = alloca { <2 x float>, float }, align 8
  %15 = getelementptr inbounds nuw { <2 x float>, float }, ptr %9, i32 0, i32 0
  store <2 x float> %0, ptr %15, align 4
  %16 = getelementptr inbounds nuw { <2 x float>, float }, ptr %9, i32 0, i32 1
  store float %1, ptr %16, align 4
  call void @llvm.memcpy.p0.p0.i64(ptr align 4 %8, ptr align 4 %9, i64 12, i1 false)
  %17 = getelementptr inbounds nuw { <2 x float>, float }, ptr %11, i32 0, i32 0
  store <2 x float> %2, ptr %17, align 4
  %18 = getelementptr inbounds nuw { <2 x float>, float }, ptr %11, i32 0, i32 1
  store float %3, ptr %18, align 4
  call void @llvm.memcpy.p0.p0.i64(ptr align 4 %10, ptr align 4 %11, i64 12, i1 false)
  %19 = getelementptr inbounds nuw { <2 x float>, float }, ptr %13, i32 0, i32 0
  store <2 x float> %4, ptr %19, align 4
  %20 = getelementptr inbounds nuw { <2 x float>, float }, ptr %13, i32 0, i32 1
  store float %5, ptr %20, align 4
  call void @llvm.memcpy.p0.p0.i64(ptr align 4 %12, ptr align 4 %13, i64 12, i1 false)
  call void @llvm.memset.p0.i64(ptr align 4 %7, i8 0, i64 12, i1 false)
  %21 = getelementptr inbounds nuw %struct.Vector3, ptr %12, i32 0, i32 0
  %22 = load float, ptr %21, align 4
  %23 = getelementptr inbounds nuw %struct.Vector3, ptr %10, i32 0, i32 0
  %24 = load float, ptr %23, align 4
  %25 = getelementptr inbounds nuw %struct.Vector3, ptr %8, i32 0, i32 0
  %26 = load float, ptr %25, align 4
  %27 = call float @llvm.maxnum.f32(float %24, float %26)
  %28 = call float @llvm.minnum.f32(float %22, float %27)
  %29 = getelementptr inbounds nuw %struct.Vector3, ptr %7, i32 0, i32 0
  store float %28, ptr %29, align 4
  %30 = getelementptr inbounds nuw %struct.Vector3, ptr %12, i32 0, i32 1
  %31 = load float, ptr %30, align 4
  %32 = getelementptr inbounds nuw %struct.Vector3, ptr %10, i32 0, i32 1
  %33 = load float, ptr %32, align 4
  %34 = getelementptr inbounds nuw %struct.Vector3, ptr %8, i32 0, i32 1
  %35 = load float, ptr %34, align 4
  %36 = call float @llvm.maxnum.f32(float %33, float %35)
  %37 = call float @llvm.minnum.f32(float %31, float %36)
  %38 = getelementptr inbounds nuw %struct.Vector3, ptr %7, i32 0, i32 1
  store float %37, ptr %38, align 4
  %39 = getelementptr inbounds nuw %struct.Vector3, ptr %12, i32 0, i32 2
  %40 = load float, ptr %39, align 4
  %41 = getelementptr inbounds nuw %struct.Vector3, ptr %10, i32 0, i32 2
  %42 = load float, ptr %41, align 4
  %43 = getelementptr inbounds nuw %struct.Vector3, ptr %8, i32 0, i32 2
  %44 = load float, ptr %43, align 4
  %45 = call float @llvm.maxnum.f32(float %42, float %44)
  %46 = call float @llvm.minnum.f32(float %40, float %45)
  %47 = getelementptr inbounds nuw %struct.Vector3, ptr %7, i32 0, i32 2
  store float %46, ptr %47, align 4
  call void @llvm.memcpy.p0.p0.i64(ptr align 8 %14, ptr align 4 %7, i64 12, i1 false)
  %48 = load { <2 x float>, float }, ptr %14, align 8
  ret { <2 x float>, float } %48
}