; Function Attrs: mustprogress nofree norecurse nosync nounwind willreturn memory(none) uwtable
define { <2 x float>, float } @Vector3Clamp(<2 x float> %0, float %1, <2 x float> %2, float %3, <2 x float> %4, float %5) local_unnamed_addr #17 {
  %.sroa.03.0.vec.extract = extractelement <2 x float> %4, i64 0
  %.sroa.06.0.vec.extract = extractelement <2 x float> %2, i64 0
  %.sroa.010.0.vec.extract = extractelement <2 x float> %0, i64 0
  %7 = tail call float @llvm.maxnum.f32(float %.sroa.06.0.vec.extract, float %.sroa.010.0.vec.extract)
  %8 = tail call float @llvm.minnum.f32(float %.sroa.03.0.vec.extract, float %7)
  %.sroa.012.0.vec.insert = insertelement <2 x float> poison, float %8, i64 0
  %.sroa.03.4.vec.extract = extractelement <2 x float> %4, i64 1
  %.sroa.06.4.vec.extract = extractelement <2 x float> %2, i64 1
  %.sroa.010.4.vec.extract = extractelement <2 x float> %0, i64 1
  %9 = tail call float @llvm.maxnum.f32(float %.sroa.06.4.vec.extract, float %.sroa.010.4.vec.extract)
  %10 = tail call float @llvm.minnum.f32(float %.sroa.03.4.vec.extract, float %9)
  %.sroa.012.4.vec.insert = insertelement <2 x float> %.sroa.012.0.vec.insert, float %10, i64 1
  %11 = tail call float @llvm.maxnum.f32(float %3, float %1)
  %12 = tail call float @llvm.minnum.f32(float %5, float %11)
  %.fca.0.insert = insertvalue { <2 x float>, float } poison, <2 x float> %.sroa.012.4.vec.insert, 0
  %.fca.1.insert = insertvalue { <2 x float>, float } %.fca.0.insert, float %12, 1
  ret { <2 x float>, float } %.fca.1.insert
}